target datalayout = "e-m:e-p270:32:32-p271:32:32-p272:64:64-i64:64-i128:128-f80:128-n8:16:32:64-S128"
target triple = "x86_64-pc-linux-gnu"

%struct.agxbuf = type { %union.anon.0 }
%union.anon.0 = type { %struct.anon }
%struct.anon = type { ptr, i64, i64, [7 x i8], i8 }
%struct.pointf_s = type { double, double }

@.str.14 = private unnamed_addr constant [2 x i8] c" \00", align 1

; Function Attrs: inlinehint nounwind uwtable
define internal i64 @agxbsizeof(ptr noundef %0) #11 {
  %2 = alloca i64, align 8
  %3 = alloca ptr, align 8
  store ptr %0, ptr %3, align 8, !tbaa !77
  %4 = load ptr, ptr %3, align 8, !tbaa !77
  %5 = call zeroext i1 @agxbuf_is_inline(ptr noundef %4)
  br i1 %5, label %6, label %7

6:                                                ; preds = %1
  store i64 31, ptr %2, align 8
  br label %12

7:                                                ; preds = %1
  %8 = load ptr, ptr %3, align 8, !tbaa !77
  %9 = getelementptr inbounds nuw %struct.agxbuf, ptr %8, i32 0, i32 0
  %10 = getelementptr inbounds nuw %struct.anon, ptr %9, i32 0, i32 2
  %11 = load i64, ptr %10, align 8, !tbaa !76
  store i64 %11, ptr %2, align 8
  br label %12

12:                                               ; preds = %7, %6
  %13 = load i64, ptr %2, align 8
  ret i64 %13
}

; Function Attrs: inlinehint nounwind uwtable
define internal ptr @agxbstart(ptr noundef %0) #11 {
  %2 = alloca ptr, align 8
  store ptr %0, ptr %2, align 8, !tbaa !77
  %3 = load ptr, ptr %2, align 8, !tbaa !77
  %4 = call zeroext i1 @agxbuf_is_inline(ptr noundef %3)
  br i1 %4, label %5, label %9

5:                                                ; preds = %1
  %6 = load ptr, ptr %2, align 8, !tbaa !77
  %7 = getelementptr inbounds nuw %struct.agxbuf, ptr %6, i32 0, i32 0
  %8 = getelementptr inbounds [31 x i8], ptr %7, i64 0, i64 0
  br label %14

9:                                                ; preds = %1
  %10 = load ptr, ptr %2, align 8, !tbaa !77
  %11 = getelementptr inbounds nuw %struct.agxbuf, ptr %10, i32 0, i32 0
  %12 = getelementptr inbounds nuw %struct.anon, ptr %11, i32 0, i32 0
  %13 = load ptr, ptr %12, align 8, !tbaa !76
  br label %14

14:                                               ; preds = %9, %5
  %15 = phi ptr [ %8, %5 ], [ %13, %9 ]
  ret ptr %15
}

; Function Attrs: inlinehint nounwind uwtable
define internal void @agxbclear(ptr noundef %0) #11 {
  %2 = alloca ptr, align 8
  store ptr %0, ptr %2, align 8, !tbaa !77
  %3 = load ptr, ptr %2, align 8, !tbaa !77
  %4 = call zeroext i1 @agxbuf_is_inline(ptr noundef %3)
  br i1 %4, label %5, label %9

5:                                                ; preds = %1
  %6 = load ptr, ptr %2, align 8, !tbaa !77
  %7 = getelementptr inbounds nuw %struct.agxbuf, ptr %6, i32 0, i32 0
  %8 = getelementptr inbounds nuw %struct.anon, ptr %7, i32 0, i32 4
  store i8 0, ptr %8, align 1, !tbaa !76
  br label %13

9:                                                ; preds = %1
  %10 = load ptr, ptr %2, align 8, !tbaa !77
  %11 = getelementptr inbounds nuw %struct.agxbuf, ptr %10, i32 0, i32 0
  %12 = getelementptr inbounds nuw %struct.anon, ptr %11, i32 0, i32 1
  store i64 0, ptr %12, align 8, !tbaa !76
  br label %13

13:                                               ; preds = %9, %5
  ret void
}

; Function Attrs: inlinehint nounwind uwtable
define internal i32 @agxbputc(ptr noundef %0, i8 noundef signext %1) #11 {
  %3 = alloca ptr, align 8
  %4 = alloca i8, align 1
  %5 = alloca i64, align 8
  store ptr %0, ptr %3, align 8, !tbaa !77
  store i8 %1, ptr %4, align 1, !tbaa !76
  %6 = load ptr, ptr %3, align 8, !tbaa !77
  %7 = call i64 @agxblen(ptr noundef %6)
  %8 = load ptr, ptr %3, align 8, !tbaa !77
  %9 = call i64 @agxbsizeof(ptr noundef %8)
  %10 = icmp uge i64 %7, %9
  br i1 %10, label %11, label %13

11:                                               ; preds = %2
  %12 = load ptr, ptr %3, align 8, !tbaa !77
  call void @agxbmore(ptr noundef %12, i64 noundef 1)
  br label %13

13:                                               ; preds = %11, %2
  call void @llvm.lifetime.start.p0(i64 8, ptr %5) #14
  %14 = load ptr, ptr %3, align 8, !tbaa !77
  %15 = call i64 @agxblen(ptr noundef %14)
  store i64 %15, ptr %5, align 8, !tbaa !71
  %16 = load ptr, ptr %3, align 8, !tbaa !77
  %17 = call zeroext i1 @agxbuf_is_inline(ptr noundef %16)
  br i1 %17, label %18, label %29

18:                                               ; preds = %13
  %19 = load i8, ptr %4, align 1, !tbaa !76
  %20 = load ptr, ptr %3, align 8, !tbaa !77
  %21 = getelementptr inbounds nuw %struct.agxbuf, ptr %20, i32 0, i32 0
  %22 = load i64, ptr %5, align 8, !tbaa !71
  %23 = getelementptr inbounds nuw [31 x i8], ptr %21, i64 0, i64 %22
  store i8 %19, ptr %23, align 1, !tbaa !76
  %24 = load ptr, ptr %3, align 8, !tbaa !77
  %25 = getelementptr inbounds nuw %struct.agxbuf, ptr %24, i32 0, i32 0
  %26 = getelementptr inbounds nuw %struct.anon, ptr %25, i32 0, i32 4
  %27 = load i8, ptr %26, align 1, !tbaa !76
  %28 = add i8 %27, 1
  store i8 %28, ptr %26, align 1, !tbaa !76
  br label %42

29:                                               ; preds = %13
  %30 = load i8, ptr %4, align 1, !tbaa !76
  %31 = load ptr, ptr %3, align 8, !tbaa !77
  %32 = getelementptr inbounds nuw %struct.agxbuf, ptr %31, i32 0, i32 0
  %33 = getelementptr inbounds nuw %struct.anon, ptr %32, i32 0, i32 0
  %34 = load ptr, ptr %33, align 8, !tbaa !76
  %35 = load i64, ptr %5, align 8, !tbaa !71
  %36 = getelementptr inbounds nuw i8, ptr %34, i64 %35
  store i8 %30, ptr %36, align 1, !tbaa !76
  %37 = load ptr, ptr %3, align 8, !tbaa !77
  %38 = getelementptr inbounds nuw %struct.agxbuf, ptr %37, i32 0, i32 0
  %39 = getelementptr inbounds nuw %struct.anon, ptr %38, i32 0, i32 1
  %40 = load i64, ptr %39, align 8, !tbaa !76
  %41 = add i64 %40, 1
  store i64 %41, ptr %39, align 8, !tbaa !76
  br label %42

42:                                               ; preds = %29, %18
  call void @llvm.lifetime.end.p0(i64 8, ptr %5) #14
  ret i32 0
}

; Function Attrs: inlinehint nounwind uwtable
define internal i64 @agxblen(ptr noundef %0) #11 {
  %2 = alloca i64, align 8
  %3 = alloca ptr, align 8
  store ptr %0, ptr %3, align 8, !tbaa !77
  %4 = load ptr, ptr %3, align 8, !tbaa !77
  %5 = call zeroext i1 @agxbuf_is_inline(ptr noundef %4)
  br i1 %5, label %6, label %14

6:                                                ; preds = %1
  %7 = load ptr, ptr %3, align 8, !tbaa !77
  %8 = getelementptr inbounds nuw %struct.agxbuf, ptr %7, i32 0, i32 0
  %9 = getelementptr inbounds nuw %struct.anon, ptr %8, i32 0, i32 4
  %10 = load i8, ptr %9, align 1, !tbaa !76
  %11 = zext i8 %10 to i32
  %12 = sub nsw i32 %11, 0
  %13 = sext i32 %12 to i64
  store i64 %13, ptr %2, align 8
  br label %19

14:                                               ; preds = %1
  %15 = load ptr, ptr %3, align 8, !tbaa !77
  %16 = getelementptr inbounds nuw %struct.agxbuf, ptr %15, i32 0, i32 0
  %17 = getelementptr inbounds nuw %struct.anon, ptr %16, i32 0, i32 1
  %18 = load i64, ptr %17, align 8, !tbaa !76
  store i64 %18, ptr %2, align 8
  br label %19

19:                                               ; preds = %14, %6
  %20 = load i64, ptr %2, align 8
  ret i64 %20
}

; Function Attrs: inlinehint nounwind uwtable
define internal zeroext i1 @agxbuf_is_inline(ptr noundef %0) #11 {
  %2 = alloca ptr, align 8
  store ptr %0, ptr %2, align 8, !tbaa !77
  %3 = load ptr, ptr %2, align 8, !tbaa !77
  %4 = getelementptr inbounds nuw %struct.agxbuf, ptr %3, i32 0, i32 0
  %5 = getelementptr inbounds nuw %struct.anon, ptr %4, i32 0, i32 4
  %6 = load i8, ptr %5, align 1, !tbaa !76
  %7 = zext i8 %6 to i32
  %8 = icmp slt i32 %7, 255
  ret i1 %8
}

; Function Attrs: inlinehint nounwind uwtable
define internal void @agxbfree(ptr noundef %0) #11 {
  %2 = alloca ptr, align 8
  store ptr %0, ptr %2, align 8, !tbaa !77
  %3 = load ptr, ptr %2, align 8, !tbaa !77
  %4 = getelementptr inbounds nuw %struct.agxbuf, ptr %3, i32 0, i32 0
  %5 = getelementptr inbounds nuw %struct.anon, ptr %4, i32 0, i32 4
  %6 = load i8, ptr %5, align 1, !tbaa !76
  %7 = zext i8 %6 to i32
  %8 = icmp eq i32 %7, 255
  br i1 %8, label %9, label %14

9:                                                ; preds = %1
  %10 = load ptr, ptr %2, align 8, !tbaa !77
  %11 = getelementptr inbounds nuw %struct.agxbuf, ptr %10, i32 0, i32 0
  %12 = getelementptr inbounds nuw %struct.anon, ptr %11, i32 0, i32 0
  %13 = load ptr, ptr %12, align 8, !tbaa !76
  call void @free(ptr noundef %13) #14
  br label %14

14:                                               ; preds = %9, %1
  ret void
}

; Function Attrs: inlinehint nounwind uwtable
define internal ptr @agxbuse(ptr noundef %0) #11 {
  %2 = alloca ptr, align 8
  store ptr %0, ptr %2, align 8, !tbaa !77
  %3 = load ptr, ptr %2, align 8, !tbaa !77
  %4 = call zeroext i1 @agxbuf_is_inline(ptr noundef %3)
  br i1 %4, label %5, label %9

5:                                                ; preds = %1
  %6 = load ptr, ptr %2, align 8, !tbaa !77
  %7 = call i64 @agxblen(ptr noundef %6)
  %8 = icmp ne i64 %7, 31
  br i1 %8, label %9, label %12

9:                                                ; preds = %5, %1
  %10 = load ptr, ptr %2, align 8, !tbaa !77
  %11 = call i32 @agxbputc(ptr noundef %10, i8 noundef signext 0)
  br label %13

12:                                               ; preds = %5
  br label %13

13:                                               ; preds = %12, %9
  %14 = load ptr, ptr %2, align 8, !tbaa !77
  call void @agxbclear(ptr noundef %14)
  %15 = load ptr, ptr %2, align 8, !tbaa !77
  %16 = call ptr @agxbstart(ptr noundef %15)
  ret ptr %16
}

; Function Attrs: nounwind uwtable
define void @gvprintpointf(ptr noundef %0, double %1, double %2) #0 {
  %4 = alloca %struct.pointf_s, align 8
  %5 = alloca ptr, align 8
  %6 = alloca %struct.agxbuf, align 8
  %7 = alloca ptr, align 8
  %8 = getelementptr inbounds nuw { double, double }, ptr %4, i32 0, i32 0
  store double %1, ptr %8, align 8
  %9 = getelementptr inbounds nuw { double, double }, ptr %4, i32 0, i32 1
  store double %2, ptr %9, align 8
  store ptr %0, ptr %5, align 8, !tbaa !3
  call void @llvm.lifetime.start.p0(i64 32, ptr %6) #14
  call void @llvm.memset.p0.i64(ptr align 8 %6, i8 0, i64 32, i1 false)
  %10 = getelementptr inbounds nuw %struct.pointf_s, ptr %4, i32 0, i32 0
  %11 = load double, ptr %10, align 8, !tbaa !94
  call void @gvprintnum(ptr noundef %6, double noundef %11)
  call void @llvm.lifetime.start.p0(i64 8, ptr %7) #14
  %12 = call ptr @agxbuse(ptr noundef %6)
  store ptr %12, ptr %7, align 8, !tbaa !73
  %13 = load ptr, ptr %5, align 8, !tbaa !3
  %14 = load ptr, ptr %7, align 8, !tbaa !73
  %15 = load ptr, ptr %7, align 8, !tbaa !73
  %16 = call i64 @strlen(ptr noundef %15) #16
  %17 = call i64 @gvwrite(ptr noundef %13, ptr noundef %14, i64 noundef %16)
  %18 = load ptr, ptr %5, align 8, !tbaa !3
  %19 = call i64 @gvwrite(ptr noundef %18, ptr noundef @.str.14, i64 noundef 1)
  %20 = getelementptr inbounds nuw %struct.pointf_s, ptr %4, i32 0, i32 1
  %21 = load double, ptr %20, align 8, !tbaa !95
  call void @gvprintnum(ptr noundef %6, double noundef %21)
  %22 = call ptr @agxbuse(ptr noundef %6)
  store ptr %22, ptr %7, align 8, !tbaa !73
  %23 = load ptr, ptr %5, align 8, !tbaa !3
  %24 = load ptr, ptr %7, align 8, !tbaa !73
  %25 = load ptr, ptr %7, align 8, !tbaa !73
  %26 = call i64 @strlen(ptr noundef %25) #16
  %27 = call i64 @gvwrite(ptr noundef %23, ptr noundef %24, i64 noundef %26)
  call void @agxbfree(ptr noundef %6)
  call void @llvm.lifetime.end.p0(i64 8, ptr %7) #14
  call void @llvm.lifetime.end.p0(i64 32, ptr %6) #14
  ret void
}