; Function Attrs: nounwind uwtable
define void @gvprintpointf(ptr noundef %0, double %1, double %2) local_unnamed_addr #0 {
  %4 = alloca %struct.agxbuf, align 8
  call void @llvm.lifetime.start.p0(i64 32, ptr nonnull %4) #21
  call void @llvm.memset.p0.i64(ptr noundef nonnull align 8 dereferenceable(32) %4, i8 0, i64 32, i1 false)
  call fastcc void @gvprintnum(ptr noundef %4, double noundef %1)
  %5 = getelementptr inbounds nuw i8, ptr %4, i64 31
  %.val.i = load i8, ptr %5, align 1, !tbaa !54
  switch i8 %.val.i, label %agxblen.exit.i.i [
    i8 -1, label %7
    i8 31, label %agxbclear.exit.thread.i
  ]

agxblen.exit.i.i:                                 ; preds = %3
  %6 = zext i8 %.val.i to i64
  br label %agxbsizeof.exit.i.i

7:                                                ; preds = %3
  %8 = getelementptr inbounds nuw i8, ptr %4, i64 8
  %9 = load i64, ptr %8, align 8, !tbaa !54
  %10 = getelementptr inbounds nuw i8, ptr %4, i64 16
  %11 = load i64, ptr %10, align 8, !tbaa !54
  br label %agxbsizeof.exit.i.i

agxbsizeof.exit.i.i:                              ; preds = %7, %agxblen.exit.i.i
  %.0.i20.i.i = phi i64 [ %9, %7 ], [ %6, %agxblen.exit.i.i ]
  %.0.i14.i.i = phi i64 [ %11, %7 ], [ 31, %agxblen.exit.i.i ]
  %.not.i5.i = icmp ult i64 %.0.i20.i.i, %.0.i14.i.i
  br i1 %.not.i5.i, label %13, label %12

12:                                               ; preds = %agxbsizeof.exit.i.i
  call fastcc void @agxbmore(ptr noundef nonnull %4, i64 noundef 1)
  %.val.i15.pre.i.i = load i8, ptr %5, align 1, !tbaa !54
  br label %13

13:                                               ; preds = %12, %agxbsizeof.exit.i.i
  %.val.i6.pr.i = phi i8 [ %.val.i15.pre.i.i, %12 ], [ %.val.i, %agxbsizeof.exit.i.i ]
  %.not.i16.i.i = icmp eq i8 %.val.i6.pr.i, -1
  br i1 %.not.i16.i.i, label %agxbputc.exit.i.thread, label %agxbputc.exit.i

agxbputc.exit.i.thread:                           ; preds = %13
  %14 = getelementptr inbounds nuw i8, ptr %4, i64 8
  %15 = load i64, ptr %14, align 8, !tbaa !54
  %16 = load ptr, ptr %4, align 8, !tbaa !54
  %17 = getelementptr inbounds nuw i8, ptr %16, i64 %15
  store i8 0, ptr %17, align 1, !tbaa !54
  br label %23

agxbputc.exit.i:                                  ; preds = %13
  %18 = zext i8 %.val.i6.pr.i to i64
  %19 = getelementptr inbounds nuw [31 x i8], ptr %4, i64 0, i64 %18
  store i8 0, ptr %19, align 1, !tbaa !54
  %20 = load i8, ptr %5, align 1, !tbaa !54
  %21 = add i8 %20, 1
  store i8 %21, ptr %5, align 1, !tbaa !54
  %22 = icmp eq i8 %21, -1
  br i1 %22, label %23, label %agxbclear.exit.thread.i

agxbclear.exit.thread.i:                          ; preds = %agxbputc.exit.i, %3
  store i8 0, ptr %5, align 1, !tbaa !54
  br label %agxbuse.exit

23:                                               ; preds = %agxbputc.exit.i.thread, %agxbputc.exit.i
  %24 = getelementptr inbounds nuw i8, ptr %4, i64 8
  store i64 0, ptr %24, align 8, !tbaa !54
  %25 = load ptr, ptr %4, align 8, !tbaa !54
  br label %agxbuse.exit

agxbuse.exit:                                     ; preds = %agxbclear.exit.thread.i, %23
  %26 = phi ptr [ %25, %23 ], [ %4, %agxbclear.exit.thread.i ]
  %27 = call i64 @strlen(ptr noundef nonnull dereferenceable(1) %26) #22
  %28 = call i64 @gvwrite(ptr noundef %0, ptr noundef nonnull %26, i64 noundef %27)
  %29 = call i64 @gvwrite(ptr noundef %0, ptr noundef nonnull @.str.14, i64 noundef 1)
  call fastcc void @gvprintnum(ptr noundef %4, double noundef %2)
  %.val.i8 = load i8, ptr %5, align 1, !tbaa !54
  switch i8 %.val.i8, label %agxblen.exit.i.i21 [
    i8 -1, label %31
    i8 31, label %agxbclear.exit.thread.i9
  ]

agxblen.exit.i.i21:                               ; preds = %agxbuse.exit
  %30 = zext i8 %.val.i8 to i64
  br label %agxbsizeof.exit.i.i10

31:                                               ; preds = %agxbuse.exit
  %32 = getelementptr inbounds nuw i8, ptr %4, i64 8
  %33 = load i64, ptr %32, align 8, !tbaa !54
  %34 = getelementptr inbounds nuw i8, ptr %4, i64 16
  %35 = load i64, ptr %34, align 8, !tbaa !54
  br label %agxbsizeof.exit.i.i10

agxbsizeof.exit.i.i10:                            ; preds = %31, %agxblen.exit.i.i21
  %.0.i20.i.i11 = phi i64 [ %33, %31 ], [ %30, %agxblen.exit.i.i21 ]
  %.0.i14.i.i12 = phi i64 [ %35, %31 ], [ 31, %agxblen.exit.i.i21 ]
  %.not.i5.i13 = icmp ult i64 %.0.i20.i.i11, %.0.i14.i.i12
  br i1 %.not.i5.i13, label %37, label %36

36:                                               ; preds = %agxbsizeof.exit.i.i10
  call fastcc void @agxbmore(ptr noundef nonnull %4, i64 noundef 1)
  %.val.i15.pre.i.i14 = load i8, ptr %5, align 1, !tbaa !54
  br label %37

37:                                               ; preds = %36, %agxbsizeof.exit.i.i10
  %.val.i15.i.i15 = phi i8 [ %.val.i15.pre.i.i14, %36 ], [ %.val.i8, %agxbsizeof.exit.i.i10 ]
  %.not.i16.i.i16 = icmp eq i8 %.val.i15.i.i15, -1
  br i1 %.not.i16.i.i16, label %43, label %38

38:                                               ; preds = %37
  %39 = zext i8 %.val.i15.i.i15 to i64
  %40 = getelementptr inbounds nuw [31 x i8], ptr %4, i64 0, i64 %39
  store i8 0, ptr %40, align 1, !tbaa !54
  %41 = load i8, ptr %5, align 1, !tbaa !54
  %42 = add i8 %41, 1
  store i8 %42, ptr %5, align 1, !tbaa !54
  br label %agxbputc.exit.i17

43:                                               ; preds = %37
  %44 = getelementptr inbounds nuw i8, ptr %4, i64 8
  %45 = load i64, ptr %44, align 8, !tbaa !54
  %46 = load ptr, ptr %4, align 8, !tbaa !54
  %47 = getelementptr inbounds nuw i8, ptr %46, i64 %45
  store i8 0, ptr %47, align 1, !tbaa !54
  %48 = load i64, ptr %44, align 8, !tbaa !54
  %49 = add i64 %48, 1
  store i64 %49, ptr %44, align 8, !tbaa !54
  %.val.i6.pr.i20 = load i8, ptr %5, align 1, !tbaa !54
  br label %agxbputc.exit.i17

agxbputc.exit.i17:                                ; preds = %43, %38
  %.val.i8.pr.i18 = phi i8 [ %.val.i6.pr.i20, %43 ], [ %42, %38 ]
  %.not.i7.i19 = icmp eq i8 %.val.i8.pr.i18, -1
  br i1 %.not.i7.i19, label %50, label %agxbclear.exit.thread.i9

agxbclear.exit.thread.i9:                         ; preds = %agxbputc.exit.i17, %agxbuse.exit
  store i8 0, ptr %5, align 1, !tbaa !54
  br label %agxbuse.exit22

50:                                               ; preds = %agxbputc.exit.i17
  %51 = getelementptr inbounds nuw i8, ptr %4, i64 8
  store i64 0, ptr %51, align 8, !tbaa !54
  %52 = load ptr, ptr %4, align 8, !tbaa !54
  br label %agxbuse.exit22

agxbuse.exit22:                                   ; preds = %agxbclear.exit.thread.i9, %50
  %53 = phi ptr [ %52, %50 ], [ %4, %agxbclear.exit.thread.i9 ]
  %54 = call i64 @strlen(ptr noundef nonnull dereferenceable(1) %53) #22
  %55 = call i64 @gvwrite(ptr noundef %0, ptr noundef nonnull %53, i64 noundef %54)
  %.val7 = load i8, ptr %5, align 1, !tbaa !54
  %56 = icmp eq i8 %.val7, -1
  br i1 %56, label %57, label %agxbfree.exit

57:                                               ; preds = %agxbuse.exit22
  %.val = load ptr, ptr %4, align 8
  call void @free(ptr noundef %.val) #21
  br label %agxbfree.exit

agxbfree.exit:                                    ; preds = %agxbuse.exit22, %57
  call void @llvm.lifetime.end.p0(i64 32, ptr nonnull %4) #21
  ret void
}